target datalayout = "e-m:e-p270:32:32-p271:32:32-p272:64:64-i64:64-i128:128-f80:128-n8:16:32:64-S128"
target triple = "x86_64-pc-linux-gnu"

%struct.slabclass_t = type { i32, i32, ptr, i32, i32, ptr, i32 }
%struct._stritem = type { ptr, ptr, ptr, i32, i32, i32, i16, i16, i8, i8, [0 x %union.anon] }
%union.anon = type { i64 }
%struct._strchunk = type { ptr, ptr, ptr, i32, i32, i32, i16, i16, i8, i8, [0 x i8] }

@slabclass = internal global [64 x %struct.slabclass_t] zeroinitializer, align 16
@power_largest = internal global i32 0, align 4

; Function Attrs: nounwind uwtable
define internal void @do_slabs_free_chunked(ptr noundef %0) #0 {
  %2 = alloca ptr, align 8
  %3 = alloca ptr, align 8
  %4 = alloca ptr, align 8
  %5 = alloca ptr, align 8
  store ptr %0, ptr %2, align 8, !tbaa !22
  call void @llvm.lifetime.start.p0(i64 8, ptr %3) #9
  %6 = load ptr, ptr %2, align 8, !tbaa !22
  %7 = getelementptr inbounds nuw %struct._stritem, ptr %6, i32 0, i32 10
  %8 = load ptr, ptr %2, align 8, !tbaa !22
  %9 = getelementptr inbounds nuw %struct._stritem, ptr %8, i32 0, i32 9
  %10 = load i8, ptr %9, align 1, !tbaa !24
  %11 = zext i8 %10 to i32
  %12 = sext i32 %11 to i64
  %13 = getelementptr inbounds i8, ptr %7, i64 %12
  %14 = getelementptr inbounds i8, ptr %13, i64 1
  %15 = load ptr, ptr %2, align 8, !tbaa !22
  %16 = getelementptr inbounds nuw %struct._stritem, ptr %15, i32 0, i32 7
  %17 = load i16, ptr %16, align 2, !tbaa !28
  %18 = zext i16 %17 to i32
  %19 = and i32 %18, 256
  %20 = icmp ne i32 %19, 0
  %21 = select i1 %20, i64 4, i64 0
  %22 = getelementptr inbounds nuw i8, ptr %14, i64 %21
  %23 = load ptr, ptr %2, align 8, !tbaa !22
  %24 = getelementptr inbounds nuw %struct._stritem, ptr %23, i32 0, i32 7
  %25 = load i16, ptr %24, align 2, !tbaa !28
  %26 = zext i16 %25 to i32
  %27 = and i32 %26, 2
  %28 = icmp ne i32 %27, 0
  %29 = select i1 %28, i64 8, i64 0
  %30 = getelementptr inbounds nuw i8, ptr %22, i64 %29
  store ptr %30, ptr %3, align 8, !tbaa !74
  call void @llvm.lifetime.start.p0(i64 8, ptr %4) #9
  %31 = load ptr, ptr %2, align 8, !tbaa !22
  %32 = getelementptr inbounds nuw %struct._stritem, ptr %31, i32 0, i32 7
  store i16 4, ptr %32, align 2, !tbaa !28
  %33 = load ptr, ptr %2, align 8, !tbaa !22
  %34 = getelementptr inbounds nuw %struct._stritem, ptr %33, i32 0, i32 1
  store ptr null, ptr %34, align 8, !tbaa !22
  %35 = load ptr, ptr %3, align 8, !tbaa !74
  %36 = getelementptr inbounds nuw %struct._strchunk, ptr %35, i32 0, i32 9
  %37 = load i8, ptr %36, align 1, !tbaa !24
  %38 = zext i8 %37 to i64
  %39 = getelementptr inbounds nuw [64 x %struct.slabclass_t], ptr @slabclass, i64 0, i64 %38
  store ptr %39, ptr %4, align 8, !tbaa !25
  %40 = load ptr, ptr %3, align 8, !tbaa !74
  %41 = getelementptr inbounds nuw %struct._strchunk, ptr %40, i32 0, i32 9
  %42 = load i8, ptr %41, align 1, !tbaa !24
  %43 = load ptr, ptr %2, align 8, !tbaa !22
  %44 = getelementptr inbounds nuw %struct._stritem, ptr %43, i32 0, i32 8
  store i8 %42, ptr %44, align 8, !tbaa !24
  %45 = load ptr, ptr %3, align 8, !tbaa !74
  %46 = getelementptr inbounds nuw %struct._strchunk, ptr %45, i32 0, i32 0
  %47 = load ptr, ptr %46, align 8, !tbaa !74
  %48 = icmp ne ptr %47, null
  br i1 %48, label %49, label %55

49:                                               ; preds = %1
  %50 = load ptr, ptr %3, align 8, !tbaa !74
  %51 = getelementptr inbounds nuw %struct._strchunk, ptr %50, i32 0, i32 0
  %52 = load ptr, ptr %51, align 8, !tbaa !74
  store ptr %52, ptr %3, align 8, !tbaa !74
  %53 = load ptr, ptr %3, align 8, !tbaa !74
  %54 = getelementptr inbounds nuw %struct._strchunk, ptr %53, i32 0, i32 1
  store ptr null, ptr %54, align 8, !tbaa !74
  br label %56

55:                                               ; preds = %1
  store ptr null, ptr %3, align 8, !tbaa !74
  br label %56

56:                                               ; preds = %55, %49
  %57 = load ptr, ptr %2, align 8, !tbaa !22
  %58 = getelementptr inbounds nuw %struct._stritem, ptr %57, i32 0, i32 1
  store ptr null, ptr %58, align 8, !tbaa !22
  %59 = load ptr, ptr %4, align 8, !tbaa !25
  %60 = getelementptr inbounds nuw %struct.slabclass_t, ptr %59, i32 0, i32 2
  %61 = load ptr, ptr %60, align 8, !tbaa !30
  %62 = load ptr, ptr %2, align 8, !tbaa !22
  %63 = getelementptr inbounds nuw %struct._stritem, ptr %62, i32 0, i32 0
  store ptr %61, ptr %63, align 8, !tbaa !22
  %64 = load ptr, ptr %2, align 8, !tbaa !22
  %65 = getelementptr inbounds nuw %struct._stritem, ptr %64, i32 0, i32 0
  %66 = load ptr, ptr %65, align 8, !tbaa !22
  %67 = icmp ne ptr %66, null
  br i1 %67, label %68, label %74

68:                                               ; preds = %56
  %69 = load ptr, ptr %2, align 8, !tbaa !22
  %70 = load ptr, ptr %2, align 8, !tbaa !22
  %71 = getelementptr inbounds nuw %struct._stritem, ptr %70, i32 0, i32 0
  %72 = load ptr, ptr %71, align 8, !tbaa !22
  %73 = getelementptr inbounds nuw %struct._stritem, ptr %72, i32 0, i32 1
  store ptr %69, ptr %73, align 8, !tbaa !22
  br label %74

74:                                               ; preds = %68, %56
  %75 = load ptr, ptr %2, align 8, !tbaa !22
  %76 = load ptr, ptr %4, align 8, !tbaa !25
  %77 = getelementptr inbounds nuw %struct.slabclass_t, ptr %76, i32 0, i32 2
  store ptr %75, ptr %77, align 8, !tbaa !30
  %78 = load ptr, ptr %4, align 8, !tbaa !25
  %79 = getelementptr inbounds nuw %struct.slabclass_t, ptr %78, i32 0, i32 3
  %80 = load i32, ptr %79, align 8, !tbaa !31
  %81 = add i32 %80, 1
  store i32 %81, ptr %79, align 8, !tbaa !31
  call void @llvm.lifetime.start.p0(i64 8, ptr %5) #9
  br label %82

82:                                               ; preds = %113, %74
  %83 = load ptr, ptr %3, align 8, !tbaa !74
  %84 = icmp ne ptr %83, null
  br i1 %84, label %85, label %122

85:                                               ; preds = %82
  %86 = load ptr, ptr %3, align 8, !tbaa !74
  %87 = getelementptr inbounds nuw %struct._strchunk, ptr %86, i32 0, i32 7
  store i16 4, ptr %87, align 2, !tbaa !28
  %88 = load ptr, ptr %3, align 8, !tbaa !74
  %89 = getelementptr inbounds nuw %struct._strchunk, ptr %88, i32 0, i32 8
  %90 = load i8, ptr %89, align 8, !tbaa !24
  %91 = zext i8 %90 to i64
  %92 = getelementptr inbounds nuw [64 x %struct.slabclass_t], ptr @slabclass, i64 0, i64 %91
  store ptr %92, ptr %4, align 8, !tbaa !25
  %93 = load ptr, ptr %3, align 8, !tbaa !74
  %94 = getelementptr inbounds nuw %struct._strchunk, ptr %93, i32 0, i32 0
  %95 = load ptr, ptr %94, align 8, !tbaa !74
  store ptr %95, ptr %5, align 8, !tbaa !74
  %96 = load ptr, ptr %3, align 8, !tbaa !74
  %97 = getelementptr inbounds nuw %struct._strchunk, ptr %96, i32 0, i32 1
  store ptr null, ptr %97, align 8, !tbaa !74
  %98 = load ptr, ptr %4, align 8, !tbaa !25
  %99 = getelementptr inbounds nuw %struct.slabclass_t, ptr %98, i32 0, i32 2
  %100 = load ptr, ptr %99, align 8, !tbaa !30
  %101 = load ptr, ptr %3, align 8, !tbaa !74
  %102 = getelementptr inbounds nuw %struct._strchunk, ptr %101, i32 0, i32 0
  store ptr %100, ptr %102, align 8, !tbaa !74
  %103 = load ptr, ptr %3, align 8, !tbaa !74
  %104 = getelementptr inbounds nuw %struct._strchunk, ptr %103, i32 0, i32 0
  %105 = load ptr, ptr %104, align 8, !tbaa !74
  %106 = icmp ne ptr %105, null
  br i1 %106, label %107, label %113

107:                                              ; preds = %85
  %108 = load ptr, ptr %3, align 8, !tbaa !74
  %109 = load ptr, ptr %3, align 8, !tbaa !74
  %110 = getelementptr inbounds nuw %struct._strchunk, ptr %109, i32 0, i32 0
  %111 = load ptr, ptr %110, align 8, !tbaa !74
  %112 = getelementptr inbounds nuw %struct._strchunk, ptr %111, i32 0, i32 1
  store ptr %108, ptr %112, align 8, !tbaa !74
  br label %113

113:                                              ; preds = %107, %85
  %114 = load ptr, ptr %3, align 8, !tbaa !74
  %115 = load ptr, ptr %4, align 8, !tbaa !25
  %116 = getelementptr inbounds nuw %struct.slabclass_t, ptr %115, i32 0, i32 2
  store ptr %114, ptr %116, align 8, !tbaa !30
  %117 = load ptr, ptr %4, align 8, !tbaa !25
  %118 = getelementptr inbounds nuw %struct.slabclass_t, ptr %117, i32 0, i32 3
  %119 = load i32, ptr %118, align 8, !tbaa !31
  %120 = add i32 %119, 1
  store i32 %120, ptr %118, align 8, !tbaa !31
  %121 = load ptr, ptr %5, align 8, !tbaa !74
  store ptr %121, ptr %3, align 8, !tbaa !74
  br label %82, !llvm.loop !76

122:                                              ; preds = %82
  call void @llvm.lifetime.end.p0(i64 8, ptr %5) #9
  call void @llvm.lifetime.end.p0(i64 8, ptr %4) #9
  call void @llvm.lifetime.end.p0(i64 8, ptr %3) #9
  ret void
}

; Function Attrs: nounwind uwtable
define internal void @do_slabs_free(ptr noundef %0, i32 noundef %1) #0 {
  %3 = alloca ptr, align 8
  %4 = alloca i32, align 4
  %5 = alloca ptr, align 8
  %6 = alloca ptr, align 8
  %7 = alloca i32, align 4
  store ptr %0, ptr %3, align 8, !tbaa !25
  store i32 %1, ptr %4, align 4, !tbaa !8
  call void @llvm.lifetime.start.p0(i64 8, ptr %5) #9
  call void @llvm.lifetime.start.p0(i64 8, ptr %6) #9
  %8 = load i32, ptr %4, align 4, !tbaa !8
  %9 = icmp ult i32 %8, 1
  br i1 %9, label %14, label %10

10:                                               ; preds = %2
  %11 = load i32, ptr %4, align 4, !tbaa !8
  %12 = load i32, ptr @power_largest, align 4, !tbaa !8
  %13 = icmp ugt i32 %11, %12
  br i1 %13, label %14, label %15

14:                                               ; preds = %10, %2
  store i32 1, ptr %7, align 4
  br label %61

15:                                               ; preds = %10
  %16 = load i32, ptr %4, align 4, !tbaa !8
  %17 = zext i32 %16 to i64
  %18 = getelementptr inbounds nuw [64 x %struct.slabclass_t], ptr @slabclass, i64 0, i64 %17
  store ptr %18, ptr %5, align 8, !tbaa !25
  %19 = load ptr, ptr %3, align 8, !tbaa !25
  store ptr %19, ptr %6, align 8, !tbaa !22
  %20 = load ptr, ptr %6, align 8, !tbaa !22
  %21 = getelementptr inbounds nuw %struct._stritem, ptr %20, i32 0, i32 7
  %22 = load i16, ptr %21, align 2, !tbaa !28
  %23 = zext i16 %22 to i32
  %24 = and i32 %23, 32
  %25 = icmp eq i32 %24, 0
  br i1 %25, label %26, label %58

26:                                               ; preds = %15
  %27 = load ptr, ptr %6, align 8, !tbaa !22
  %28 = getelementptr inbounds nuw %struct._stritem, ptr %27, i32 0, i32 7
  store i16 4, ptr %28, align 2, !tbaa !28
  %29 = load i32, ptr %4, align 4, !tbaa !8
  %30 = trunc i32 %29 to i8
  %31 = load ptr, ptr %6, align 8, !tbaa !22
  %32 = getelementptr inbounds nuw %struct._stritem, ptr %31, i32 0, i32 8
  store i8 %30, ptr %32, align 8, !tbaa !24
  %33 = load ptr, ptr %6, align 8, !tbaa !22
  %34 = getelementptr inbounds nuw %struct._stritem, ptr %33, i32 0, i32 1
  store ptr null, ptr %34, align 8, !tbaa !22
  %35 = load ptr, ptr %5, align 8, !tbaa !25
  %36 = getelementptr inbounds nuw %struct.slabclass_t, ptr %35, i32 0, i32 2
  %37 = load ptr, ptr %36, align 8, !tbaa !30
  %38 = load ptr, ptr %6, align 8, !tbaa !22
  %39 = getelementptr inbounds nuw %struct._stritem, ptr %38, i32 0, i32 0
  store ptr %37, ptr %39, align 8, !tbaa !22
  %40 = load ptr, ptr %6, align 8, !tbaa !22
  %41 = getelementptr inbounds nuw %struct._stritem, ptr %40, i32 0, i32 0
  %42 = load ptr, ptr %41, align 8, !tbaa !22
  %43 = icmp ne ptr %42, null
  br i1 %43, label %44, label %50

44:                                               ; preds = %26
  %45 = load ptr, ptr %6, align 8, !tbaa !22
  %46 = load ptr, ptr %6, align 8, !tbaa !22
  %47 = getelementptr inbounds nuw %struct._stritem, ptr %46, i32 0, i32 0
  %48 = load ptr, ptr %47, align 8, !tbaa !22
  %49 = getelementptr inbounds nuw %struct._stritem, ptr %48, i32 0, i32 1
  store ptr %45, ptr %49, align 8, !tbaa !22
  br label %50

50:                                               ; preds = %44, %26
  %51 = load ptr, ptr %6, align 8, !tbaa !22
  %52 = load ptr, ptr %5, align 8, !tbaa !25
  %53 = getelementptr inbounds nuw %struct.slabclass_t, ptr %52, i32 0, i32 2
  store ptr %51, ptr %53, align 8, !tbaa !30
  %54 = load ptr, ptr %5, align 8, !tbaa !25
  %55 = getelementptr inbounds nuw %struct.slabclass_t, ptr %54, i32 0, i32 3
  %56 = load i32, ptr %55, align 8, !tbaa !31
  %57 = add i32 %56, 1
  store i32 %57, ptr %55, align 8, !tbaa !31
  br label %60

58:                                               ; preds = %15
  %59 = load ptr, ptr %6, align 8, !tbaa !22
  call void @do_slabs_free_chunked(ptr noundef %59)
  br label %60

60:                                               ; preds = %58, %50
  store i32 1, ptr %7, align 4
  br label %61

61:                                               ; preds = %60, %14
  call void @llvm.lifetime.end.p0(i64 8, ptr %6) #9
  call void @llvm.lifetime.end.p0(i64 8, ptr %5) #9
  ret void
}