; Function Attrs: nofree norecurse nosync nounwind memory(readwrite, inaccessiblemem: none) uwtable
define internal fastcc void @do_slabs_free(ptr noundef %0, i32 noundef %1) unnamed_addr #10 {
  %3 = load i32, ptr @power_largest, align 4
  %4 = freeze i32 %3
  %5 = add i32 %1, -1
  %or.cond.not = icmp ult i32 %5, %4
  br i1 %or.cond.not, label %6, label %do_slabs_free_chunked.exit

6:                                                ; preds = %2
  %7 = zext i32 %1 to i64
  %8 = getelementptr inbounds nuw [64 x %struct.slabclass_t], ptr @slabclass, i64 0, i64 %7
  %9 = getelementptr inbounds nuw i8, ptr %0, i64 38
  %10 = load i16, ptr %9, align 2, !tbaa !18
  %11 = and i16 %10, 32
  %12 = icmp eq i16 %11, 0
  br i1 %12, label %13, label %25

13:                                               ; preds = %6
  store i16 4, ptr %9, align 2, !tbaa !18
  %14 = trunc i32 %1 to i8
  %15 = getelementptr inbounds nuw i8, ptr %0, i64 40
  store i8 %14, ptr %15, align 8, !tbaa !12
  %16 = getelementptr inbounds nuw i8, ptr %0, i64 8
  store ptr null, ptr %16, align 8, !tbaa !20
  %17 = getelementptr inbounds nuw i8, ptr %8, i64 8
  %18 = load ptr, ptr %17, align 8, !tbaa !22
  store ptr %18, ptr %0, align 8, !tbaa !20
  %.not = icmp eq ptr %18, null
  br i1 %.not, label %21, label %19

19:                                               ; preds = %13
  %20 = getelementptr inbounds nuw i8, ptr %18, i64 8
  store ptr %0, ptr %20, align 8, !tbaa !20
  br label %21

21:                                               ; preds = %19, %13
  store ptr %0, ptr %17, align 8, !tbaa !22
  %22 = getelementptr inbounds nuw i8, ptr %8, i64 16
  %23 = load i32, ptr %22, align 8, !tbaa !23
  %24 = add i32 %23, 1
  store i32 %24, ptr %22, align 8, !tbaa !23
  br label %do_slabs_free_chunked.exit

25:                                               ; preds = %6
  %26 = getelementptr inbounds nuw i8, ptr %0, i64 48
  %27 = getelementptr inbounds nuw i8, ptr %0, i64 41
  %28 = load i8, ptr %27, align 1, !tbaa !12
  %29 = zext i8 %28 to i64
  %30 = getelementptr inbounds nuw i8, ptr %26, i64 %29
  %31 = getelementptr inbounds nuw i8, ptr %30, i64 1
  %32 = zext i16 %10 to i32
  %33 = lshr i32 %32, 6
  %34 = and i32 %33, 4
  %35 = zext nneg i32 %34 to i64
  %36 = getelementptr inbounds nuw i8, ptr %31, i64 %35
  %37 = shl nuw nsw i32 %32, 2
  %38 = and i32 %37, 8
  %39 = zext nneg i32 %38 to i64
  %40 = getelementptr inbounds nuw i8, ptr %36, i64 %39
  store i16 4, ptr %9, align 2, !tbaa !18
  %41 = getelementptr inbounds nuw i8, ptr %0, i64 8
  %42 = getelementptr inbounds nuw i8, ptr %40, i64 41
  %43 = load i8, ptr %42, align 1, !tbaa !12
  %44 = zext i8 %43 to i64
  %45 = getelementptr inbounds nuw [64 x %struct.slabclass_t], ptr @slabclass, i64 0, i64 %44
  %46 = getelementptr inbounds nuw i8, ptr %0, i64 40
  store i8 %43, ptr %46, align 8, !tbaa !12
  %47 = load ptr, ptr %40, align 8, !tbaa !49
  %.not.i = icmp eq ptr %47, null
  br i1 %.not.i, label %50, label %48

48:                                               ; preds = %25
  %49 = getelementptr inbounds nuw i8, ptr %47, i64 8
  store ptr null, ptr %49, align 8, !tbaa !49
  br label %50

50:                                               ; preds = %48, %25
  store ptr null, ptr %41, align 8, !tbaa !20
  %51 = getelementptr inbounds nuw i8, ptr %45, i64 8
  %52 = load ptr, ptr %51, align 8, !tbaa !22
  store ptr %52, ptr %0, align 8, !tbaa !20
  %.not38.i = icmp eq ptr %52, null
  br i1 %.not38.i, label %55, label %53

53:                                               ; preds = %50
  %54 = getelementptr inbounds nuw i8, ptr %52, i64 8
  store ptr %0, ptr %54, align 8, !tbaa !20
  br label %55

55:                                               ; preds = %53, %50
  store ptr %0, ptr %51, align 8, !tbaa !22
  %56 = getelementptr inbounds nuw i8, ptr %45, i64 16
  %57 = load i32, ptr %56, align 8, !tbaa !23
  %58 = add i32 %57, 1
  store i32 %58, ptr %56, align 8, !tbaa !23
  br i1 %.not.i, label %do_slabs_free_chunked.exit, label %.lr.ph.i

.lr.ph.i:                                         ; preds = %55, %70
  %.142.i = phi ptr [ %64, %70 ], [ %47, %55 ]
  %59 = getelementptr inbounds nuw i8, ptr %.142.i, i64 38
  store i16 4, ptr %59, align 2, !tbaa !18
  %60 = getelementptr inbounds nuw i8, ptr %.142.i, i64 40
  %61 = load i8, ptr %60, align 8, !tbaa !12
  %62 = zext i8 %61 to i64
  %63 = getelementptr inbounds nuw [64 x %struct.slabclass_t], ptr @slabclass, i64 0, i64 %62
  %64 = load ptr, ptr %.142.i, align 8, !tbaa !49
  %65 = getelementptr inbounds nuw i8, ptr %.142.i, i64 8
  store ptr null, ptr %65, align 8, !tbaa !49
  %66 = getelementptr inbounds nuw i8, ptr %63, i64 8
  %67 = load ptr, ptr %66, align 8, !tbaa !22
  store ptr %67, ptr %.142.i, align 8, !tbaa !49
  %.not40.i = icmp eq ptr %67, null
  br i1 %.not40.i, label %70, label %68

68:                                               ; preds = %.lr.ph.i
  %69 = getelementptr inbounds nuw i8, ptr %67, i64 8
  store ptr %.142.i, ptr %69, align 8, !tbaa !49
  br label %70

70:                                               ; preds = %68, %.lr.ph.i
  store ptr %.142.i, ptr %66, align 8, !tbaa !22
  %71 = getelementptr inbounds nuw i8, ptr %63, i64 16
  %72 = load i32, ptr %71, align 8, !tbaa !23
  %73 = add i32 %72, 1
  store i32 %73, ptr %71, align 8, !tbaa !23
  %.not39.i = icmp eq ptr %64, null
  br i1 %.not39.i, label %do_slabs_free_chunked.exit, label %.lr.ph.i, !llvm.loop !51

do_slabs_free_chunked.exit:                       ; preds = %70, %55, %21, %2
  ret void
}